; Function Attrs: nounwind uwtable
define dso_local ptr @slurm_char_array_copy(i32 noundef %0, ptr noundef readonly captures(none) %1) local_unnamed_addr #1 {
  %3 = add nsw i32 %0, 1
  %4 = sext i32 %3 to i64
  %5 = tail call ptr @slurm_xcalloc(i64 noundef %4, i64 noundef 8, i1 noundef zeroext true, i1 noundef zeroext false, ptr noundef nonnull @.str, i32 noundef 837, ptr noundef nonnull @__func__.slurm_char_array_copy) #24
  %6 = icmp sgt i32 %0, 0
  br i1 %6, label %.lr.ph.preheader, label %._crit_edge

.lr.ph.preheader:                                 ; preds = %2
  %wide.trip.count = zext nneg i32 %0 to i64
  br label %.lr.ph

.lr.ph:                                           ; preds = %.lr.ph.preheader, %.lr.ph
  %indvars.iv = phi i64 [ 0, %.lr.ph.preheader ], [ %indvars.iv.next, %.lr.ph ]
  %7 = getelementptr inbounds nuw ptr, ptr %1, i64 %indvars.iv
  %8 = load ptr, ptr %7, align 8
  %9 = tail call ptr @xstrdup(ptr noundef %8) #24
  %10 = getelementptr inbounds nuw ptr, ptr %5, i64 %indvars.iv
  store ptr %9, ptr %10, align 8
  %indvars.iv.next = add nuw nsw i64 %indvars.iv, 1
  %exitcond.not = icmp eq i64 %indvars.iv.next, %wide.trip.count
  br i1 %exitcond.not, label %._crit_edge, label %.lr.ph, !llvm.loop !24

._crit_edge:                                      ; preds = %.lr.ph, %2
  %11 = sext i32 %0 to i64
  %12 = getelementptr inbounds ptr, ptr %5, i64 %11
  store ptr null, ptr %12, align 8
  ret ptr %5
}